; Function Attrs: nofree norecurse nosync nounwind memory(argmem: readwrite) uwtable
define void @ff_ivi_mc_8x8_no_delta(ptr noundef writeonly captures(none) %0, ptr noundef readonly captures(none) %1, i64 noundef %2, i32 noundef %3) local_unnamed_addr #2 {
  switch i32 %3, label %ivi_mc_8x8_no_delta.exit [
    i32 0, label %.preheader.i
    i32 1, label %.preheader82.i
    i32 2, label %.preheader85.i
    i32 3, label %.preheader88.i
  ]

.preheader.i:                                     ; preds = %4, %9
  %.068110.i = phi i32 [ %10, %9 ], [ %3, %4 ]
  %.072109.i = phi ptr [ %11, %9 ], [ %0, %4 ]
  %.076108.i = phi ptr [ %12, %9 ], [ %1, %4 ]
  br label %5

5:                                                ; preds = %5, %.preheader.i
  %indvars.iv127.i = phi i64 [ 0, %.preheader.i ], [ %indvars.iv.next128.i, %5 ]
  %6 = getelementptr inbounds nuw i16, ptr %.076108.i, i64 %indvars.iv127.i
  %7 = load i16, ptr %6, align 2, !tbaa !27
  %8 = getelementptr inbounds nuw i16, ptr %.072109.i, i64 %indvars.iv127.i
  store i16 %7, ptr %8, align 2, !tbaa !27
  %indvars.iv.next128.i = add nuw nsw i64 %indvars.iv127.i, 1
  %exitcond130.not.i = icmp eq i64 %indvars.iv.next128.i, 8
  br i1 %exitcond130.not.i, label %9, label %5, !llvm.loop !61

9:                                                ; preds = %5
  %10 = add nuw nsw i32 %.068110.i, 1
  %11 = getelementptr inbounds i16, ptr %.072109.i, i64 %2
  %12 = getelementptr inbounds i16, ptr %.076108.i, i64 %2
  %exitcond131.not.i = icmp eq i32 %10, 8
  br i1 %exitcond131.not.i, label %ivi_mc_8x8_no_delta.exit, label %.preheader.i, !llvm.loop !62

.preheader82.i:                                   ; preds = %4, %24
  %.169106.i = phi i32 [ %25, %24 ], [ 0, %4 ]
  %.173105.i = phi ptr [ %26, %24 ], [ %0, %4 ]
  %.177104.i = phi ptr [ %27, %24 ], [ %1, %4 ]
  br label %13

13:                                               ; preds = %13, %.preheader82.i
  %indvars.iv122.i = phi i64 [ 0, %.preheader82.i ], [ %indvars.iv.next123.i, %13 ]
  %14 = getelementptr inbounds nuw i16, ptr %.177104.i, i64 %indvars.iv122.i
  %15 = load i16, ptr %14, align 2, !tbaa !27
  %16 = sext i16 %15 to i32
  %indvars.iv.next123.i = add nuw nsw i64 %indvars.iv122.i, 1
  %17 = getelementptr inbounds nuw i16, ptr %.177104.i, i64 %indvars.iv.next123.i
  %18 = load i16, ptr %17, align 2, !tbaa !27
  %19 = sext i16 %18 to i32
  %20 = add nsw i32 %19, %16
  %21 = lshr i32 %20, 1
  %22 = trunc i32 %21 to i16
  %23 = getelementptr inbounds nuw i16, ptr %.173105.i, i64 %indvars.iv122.i
  store i16 %22, ptr %23, align 2, !tbaa !27
  %exitcond125.not.i = icmp eq i64 %indvars.iv.next123.i, 8
  br i1 %exitcond125.not.i, label %24, label %13, !llvm.loop !63

24:                                               ; preds = %13
  %25 = add nuw nsw i32 %.169106.i, 1
  %26 = getelementptr inbounds i16, ptr %.173105.i, i64 %2
  %27 = getelementptr inbounds i16, ptr %.177104.i, i64 %2
  %exitcond126.not.i = icmp eq i32 %25, 8
  br i1 %exitcond126.not.i, label %ivi_mc_8x8_no_delta.exit, label %.preheader82.i, !llvm.loop !64

.preheader85.i:                                   ; preds = %4, %39
  %.pn111.i = phi ptr [ %.0102.i, %39 ], [ %1, %4 ]
  %.270101.i = phi i32 [ %40, %39 ], [ 0, %4 ]
  %.274100.i = phi ptr [ %41, %39 ], [ %0, %4 ]
  %.0102.i = getelementptr i16, ptr %.pn111.i, i64 %2
  br label %28

28:                                               ; preds = %28, %.preheader85.i
  %indvars.iv117.i = phi i64 [ 0, %.preheader85.i ], [ %indvars.iv.next118.i, %28 ]
  %29 = getelementptr inbounds nuw i16, ptr %.pn111.i, i64 %indvars.iv117.i
  %30 = load i16, ptr %29, align 2, !tbaa !27
  %31 = sext i16 %30 to i32
  %32 = getelementptr inbounds nuw i16, ptr %.0102.i, i64 %indvars.iv117.i
  %33 = load i16, ptr %32, align 2, !tbaa !27
  %34 = sext i16 %33 to i32
  %35 = add nsw i32 %34, %31
  %36 = lshr i32 %35, 1
  %37 = trunc i32 %36 to i16
  %38 = getelementptr inbounds nuw i16, ptr %.274100.i, i64 %indvars.iv117.i
  store i16 %37, ptr %38, align 2, !tbaa !27
  %indvars.iv.next118.i = add nuw nsw i64 %indvars.iv117.i, 1
  %exitcond120.not.i = icmp eq i64 %indvars.iv.next118.i, 8
  br i1 %exitcond120.not.i, label %39, label %28, !llvm.loop !65

39:                                               ; preds = %28
  %40 = add nuw nsw i32 %.270101.i, 1
  %41 = getelementptr inbounds i16, ptr %.274100.i, i64 %2
  %exitcond121.not.i = icmp eq i32 %40, 8
  br i1 %exitcond121.not.i, label %ivi_mc_8x8_no_delta.exit, label %.preheader85.i, !llvm.loop !66

.preheader88.i:                                   ; preds = %4, %61
  %.pn.i = phi ptr [ %.196.i, %61 ], [ %1, %4 ]
  %.37195.i = phi i32 [ %62, %61 ], [ 0, %4 ]
  %.37594.i = phi ptr [ %63, %61 ], [ %0, %4 ]
  %.196.i = getelementptr i16, ptr %.pn.i, i64 %2
  br label %42

42:                                               ; preds = %42, %.preheader88.i
  %indvars.iv.i = phi i64 [ 0, %.preheader88.i ], [ %indvars.iv.next.i, %42 ]
  %43 = getelementptr inbounds nuw i16, ptr %.pn.i, i64 %indvars.iv.i
  %44 = load i16, ptr %43, align 2, !tbaa !27
  %45 = sext i16 %44 to i32
  %indvars.iv.next.i = add nuw nsw i64 %indvars.iv.i, 1
  %46 = getelementptr inbounds nuw i16, ptr %.pn.i, i64 %indvars.iv.next.i
  %47 = load i16, ptr %46, align 2, !tbaa !27
  %48 = sext i16 %47 to i32
  %49 = add nsw i32 %48, %45
  %50 = getelementptr inbounds nuw i16, ptr %.196.i, i64 %indvars.iv.i
  %51 = load i16, ptr %50, align 2, !tbaa !27
  %52 = sext i16 %51 to i32
  %53 = add nsw i32 %49, %52
  %54 = getelementptr inbounds nuw i16, ptr %.196.i, i64 %indvars.iv.next.i
  %55 = load i16, ptr %54, align 2, !tbaa !27
  %56 = sext i16 %55 to i32
  %57 = add nsw i32 %53, %56
  %58 = lshr i32 %57, 2
  %59 = trunc i32 %58 to i16
  %60 = getelementptr inbounds nuw i16, ptr %.37594.i, i64 %indvars.iv.i
  store i16 %59, ptr %60, align 2, !tbaa !27
  %exitcond.not.i = icmp eq i64 %indvars.iv.next.i, 8
  br i1 %exitcond.not.i, label %61, label %42, !llvm.loop !67

61:                                               ; preds = %42
  %62 = add nuw nsw i32 %.37195.i, 1
  %63 = getelementptr inbounds i16, ptr %.37594.i, i64 %2
  %exitcond116.not.i = icmp eq i32 %62, 8
  br i1 %exitcond116.not.i, label %ivi_mc_8x8_no_delta.exit, label %.preheader88.i, !llvm.loop !68

ivi_mc_8x8_no_delta.exit:                         ; preds = %61, %39, %24, %9, %4
  ret void
}